target datalayout = "e-m:e-p270:32:32-p271:32:32-p272:64:64-i64:64-i128:128-f80:128-n8:16:32:64-S128"
target triple = "x86_64-pc-linux-gnu"

%struct.sqlite3_vfs = type { i32, i32, i32, ptr, ptr, ptr, ptr, ptr, ptr, ptr, ptr, ptr, ptr, ptr, ptr, ptr, ptr, ptr, ptr, ptr, ptr, ptr }
%struct.sqlite3_file = type { ptr }

; Function Attrs: mustprogress uwtable
define internal noundef i32 @_ZN5osgeo4projL8VFSCloseEP12sqlite3_file(ptr noundef %0) #4 {
  %2 = alloca ptr, align 8
  %3 = alloca ptr, align 8
  %4 = alloca ptr, align 8
  %5 = alloca ptr, align 8
  %6 = alloca i32, align 4
  store ptr %0, ptr %2, align 8, !tbaa !80
  call void @llvm.lifetime.start.p0(i64 8, ptr %3) #9
  %7 = call ptr @sqlite3_vfs_find(ptr noundef null)
  store ptr %7, ptr %3, align 8, !tbaa !18
  call void @llvm.lifetime.start.p0(i64 8, ptr %4) #9
  %8 = load ptr, ptr %2, align 8, !tbaa !80
  %9 = load ptr, ptr %3, align 8, !tbaa !18
  %10 = getelementptr inbounds nuw %struct.sqlite3_vfs, ptr %9, i32 0, i32 1
  %11 = load i32, ptr %10, align 4, !tbaa !30
  %12 = sext i32 %11 to i64
  %13 = getelementptr inbounds i8, ptr %8, i64 %12
  call void @llvm.memcpy.p0.p0.i64(ptr align 8 %4, ptr align 1 %13, i64 8, i1 false)
  call void @llvm.lifetime.start.p0(i64 8, ptr %5) #9
  %14 = load ptr, ptr %2, align 8, !tbaa !80
  %15 = getelementptr inbounds nuw %struct.sqlite3_file, ptr %14, i32 0, i32 0
  %16 = load ptr, ptr %15, align 8, !tbaa !87
  store ptr %16, ptr %5, align 8, !tbaa !76
  call void @llvm.lifetime.start.p0(i64 4, ptr %6) #9
  %17 = load ptr, ptr %4, align 8, !tbaa !76
  %18 = load ptr, ptr %2, align 8, !tbaa !80
  %19 = call noundef i32 %17(ptr noundef %18)
  store i32 %19, ptr %6, align 4, !tbaa !82
  %20 = load ptr, ptr %5, align 8, !tbaa !76
  call void @free(ptr noundef %20) #9
  %21 = load i32, ptr %6, align 4, !tbaa !82
  call void @llvm.lifetime.end.p0(i64 4, ptr %6) #9
  call void @llvm.lifetime.end.p0(i64 8, ptr %5) #9
  call void @llvm.lifetime.end.p0(i64 8, ptr %4) #9
  call void @llvm.lifetime.end.p0(i64 8, ptr %3) #9
  ret i32 %21
}