; Function Attrs: mustprogress uwtable
define internal noundef i32 @_ZN5osgeo4projL8VFSCloseEP12sqlite3_file(ptr noundef %0) #7 {
  %2 = tail call ptr @sqlite3_vfs_find(ptr noundef null)
  %3 = getelementptr inbounds nuw i8, ptr %2, i64 4
  %4 = load i32, ptr %3, align 4, !tbaa !39
  %5 = sext i32 %4 to i64
  %6 = getelementptr inbounds i8, ptr %0, i64 %5
  %.0.copyload = load ptr, ptr %6, align 1
  %7 = load ptr, ptr %0, align 8, !tbaa !77
  %8 = tail call noundef i32 %.0.copyload(ptr noundef nonnull %0)
  tail call void @free(ptr noundef %7) #24
  ret i32 %8
}